target datalayout = "e-m:e-p270:32:32-p271:32:32-p272:64:64-i64:64-i128:128-f80:128-n8:16:32:64-S128"
target triple = "x86_64-unknown-linux-gnu"

%struct.MemoryRegionPortio = type { i32, i32, i32, ptr, ptr, i32 }
%struct.PortioList = type { ptr, ptr, ptr, i32, ptr, ptr, ptr, i8 }

@.str = private unnamed_addr constant [24 x i8] c"pio->offset >= off_last\00", align 1
@.str.1 = private unnamed_addr constant [24 x i8] c"../qemu/system/ioport.c\00", align 1
@__PRETTY_FUNCTION__.portio_list_add = private unnamed_addr constant [61 x i8] c"void portio_list_add(PortioList *, MemoryRegion *, uint32_t)\00", align 1

; Function Attrs: nounwind sspstrong uwtable
define dso_local void @portio_list_add(ptr noundef %piolist, ptr noundef %address_space, i32 noundef %start) #0 {
entry:
  %piolist.addr = alloca ptr, align 8
  %address_space.addr = alloca ptr, align 8
  %start.addr = alloca i32, align 4
  %pio = alloca ptr, align 8
  %pio_start = alloca ptr, align 8
  %off_low = alloca i32, align 4
  %off_high = alloca i32, align 4
  %off_last = alloca i32, align 4
  %count = alloca i32, align 4
  store ptr %piolist, ptr %piolist.addr, align 8
  store ptr %address_space, ptr %address_space.addr, align 8
  store i32 %start, ptr %start.addr, align 4
  %0 = load ptr, ptr %piolist.addr, align 8
  %ports = getelementptr inbounds %struct.PortioList, ptr %0, i32 0, i32 0
  %1 = load ptr, ptr %ports, align 8
  store ptr %1, ptr %pio_start, align 8
  %2 = load ptr, ptr %address_space.addr, align 8
  %3 = load ptr, ptr %piolist.addr, align 8
  %address_space1 = getelementptr inbounds %struct.PortioList, ptr %3, i32 0, i32 2
  store ptr %2, ptr %address_space1, align 8
  %4 = load ptr, ptr %pio_start, align 8
  %offset = getelementptr inbounds %struct.MemoryRegionPortio, ptr %4, i32 0, i32 0
  %5 = load i32, ptr %offset, align 8
  store i32 %5, ptr %off_low, align 4
  store i32 %5, ptr %off_last, align 4
  %6 = load i32, ptr %off_low, align 4
  %7 = load ptr, ptr %pio_start, align 8
  %len = getelementptr inbounds %struct.MemoryRegionPortio, ptr %7, i32 0, i32 1
  %8 = load i32, ptr %len, align 4
  %add = add i32 %6, %8
  %9 = load ptr, ptr %pio_start, align 8
  %size = getelementptr inbounds %struct.MemoryRegionPortio, ptr %9, i32 0, i32 2
  %10 = load i32, ptr %size, align 8
  %add2 = add i32 %add, %10
  %sub = sub i32 %add2, 1
  store i32 %sub, ptr %off_high, align 4
  store i32 1, ptr %count, align 4
  %11 = load ptr, ptr %pio_start, align 8
  %add.ptr = getelementptr %struct.MemoryRegionPortio, ptr %11, i64 1
  store ptr %add.ptr, ptr %pio, align 8
  br label %for.cond

for.cond:                                         ; preds = %for.inc, %entry
  %12 = load ptr, ptr %pio, align 8
  %size3 = getelementptr inbounds %struct.MemoryRegionPortio, ptr %12, i32 0, i32 2
  %13 = load i32, ptr %size3, align 8
  %cmp = icmp ne i32 %13, 0
  br i1 %cmp, label %for.body, label %for.end

for.body:                                         ; preds = %for.cond
  %14 = load ptr, ptr %pio, align 8
  %offset4 = getelementptr inbounds %struct.MemoryRegionPortio, ptr %14, i32 0, i32 0
  %15 = load i32, ptr %offset4, align 8
  %16 = load i32, ptr %off_last, align 4
  %cmp5 = icmp uge i32 %15, %16
  br i1 %cmp5, label %if.then, label %if.else

if.then:                                          ; preds = %for.body
  br label %if.end

if.else:                                          ; preds = %for.body
  call void @__assert_fail(ptr noundef @.str, ptr noundef @.str.1, i32 noundef 294, ptr noundef @__PRETTY_FUNCTION__.portio_list_add) #12
  unreachable

if.end:                                           ; preds = %if.then
  %17 = load ptr, ptr %pio, align 8
  %offset6 = getelementptr inbounds %struct.MemoryRegionPortio, ptr %17, i32 0, i32 0
  %18 = load i32, ptr %offset6, align 8
  store i32 %18, ptr %off_last, align 4
  %19 = load i32, ptr %off_last, align 4
  %20 = load i32, ptr %off_high, align 4
  %cmp7 = icmp ugt i32 %19, %20
  br i1 %cmp7, label %if.then8, label %if.else14

if.then8:                                         ; preds = %if.end
  %21 = load ptr, ptr %piolist.addr, align 8
  %22 = load ptr, ptr %pio_start, align 8
  %23 = load i32, ptr %count, align 4
  %24 = load i32, ptr %start.addr, align 4
  %25 = load i32, ptr %off_low, align 4
  %26 = load i32, ptr %off_high, align 4
  call void @portio_list_add_1(ptr noundef %21, ptr noundef %22, i32 noundef %23, i32 noundef %24, i32 noundef %25, i32 noundef %26)
  %27 = load ptr, ptr %pio, align 8
  store ptr %27, ptr %pio_start, align 8
  %28 = load i32, ptr %off_last, align 4
  store i32 %28, ptr %off_low, align 4
  %29 = load i32, ptr %off_low, align 4
  %30 = load ptr, ptr %pio, align 8
  %len9 = getelementptr inbounds %struct.MemoryRegionPortio, ptr %30, i32 0, i32 1
  %31 = load i32, ptr %len9, align 4
  %add10 = add i32 %29, %31
  %32 = load ptr, ptr %pio_start, align 8
  %size11 = getelementptr inbounds %struct.MemoryRegionPortio, ptr %32, i32 0, i32 2
  %33 = load i32, ptr %size11, align 8
  %add12 = add i32 %add10, %33
  %sub13 = sub i32 %add12, 1
  store i32 %sub13, ptr %off_high, align 4
  store i32 0, ptr %count, align 4
  br label %if.end25

if.else14:                                        ; preds = %if.end
  %34 = load i32, ptr %off_last, align 4
  %35 = load ptr, ptr %pio, align 8
  %len15 = getelementptr inbounds %struct.MemoryRegionPortio, ptr %35, i32 0, i32 1
  %36 = load i32, ptr %len15, align 4
  %add16 = add i32 %34, %36
  %37 = load i32, ptr %off_high, align 4
  %cmp17 = icmp ugt i32 %add16, %37
  br i1 %cmp17, label %if.then18, label %if.end24

if.then18:                                        ; preds = %if.else14
  %38 = load i32, ptr %off_last, align 4
  %39 = load ptr, ptr %pio, align 8
  %len19 = getelementptr inbounds %struct.MemoryRegionPortio, ptr %39, i32 0, i32 1
  %40 = load i32, ptr %len19, align 4
  %add20 = add i32 %38, %40
  %41 = load ptr, ptr %pio_start, align 8
  %size21 = getelementptr inbounds %struct.MemoryRegionPortio, ptr %41, i32 0, i32 2
  %42 = load i32, ptr %size21, align 8
  %add22 = add i32 %add20, %42
  %sub23 = sub i32 %add22, 1
  store i32 %sub23, ptr %off_high, align 4
  br label %if.end24

if.end24:                                         ; preds = %if.then18, %if.else14
  br label %if.end25

if.end25:                                         ; preds = %if.end24, %if.then8
  br label %for.inc

for.inc:                                          ; preds = %if.end25
  %43 = load ptr, ptr %pio, align 8
  %incdec.ptr = getelementptr %struct.MemoryRegionPortio, ptr %43, i32 1
  store ptr %incdec.ptr, ptr %pio, align 8
  %44 = load i32, ptr %count, align 4
  %inc = add i32 %44, 1
  store i32 %inc, ptr %count, align 4
  br label %for.cond, !llvm.loop !8

for.end:                                          ; preds = %for.cond
  %45 = load ptr, ptr %piolist.addr, align 8
  %46 = load ptr, ptr %pio_start, align 8
  %47 = load i32, ptr %count, align 4
  %48 = load i32, ptr %start.addr, align 4
  %49 = load i32, ptr %off_low, align 4
  %50 = load i32, ptr %off_high, align 4
  call void @portio_list_add_1(ptr noundef %45, ptr noundef %46, i32 noundef %47, i32 noundef %48, i32 noundef %49, i32 noundef %50)
  ret void
}