; Function Attrs: nounwind sspstrong uwtable
define dso_local void @portio_list_add(ptr noundef captures(none) initializes((16, 24)) %piolist, ptr noundef %address_space, i32 noundef %start) local_unnamed_addr #1 {
entry:
  %0 = load ptr, ptr %piolist, align 8
  %address_space1 = getelementptr inbounds nuw i8, ptr %piolist, i64 16
  store ptr %address_space, ptr %address_space1, align 8
  %1 = load i32, ptr %0, align 8
  %len = getelementptr inbounds nuw i8, ptr %0, i64 4
  %2 = load i32, ptr %len, align 4
  %size = getelementptr inbounds nuw i8, ptr %0, i64 8
  %3 = load i32, ptr %size, align 8
  %add = add i32 %1, -1
  %add2 = add i32 %add, %2
  %sub = add i32 %add2, %3
  %size336 = getelementptr i8, ptr %0, i64 48
  %4 = load i32, ptr %size336, align 8
  %cmp.not37 = icmp eq i32 %4, 0
  br i1 %cmp.not37, label %for.end, label %for.body

for.body:                                         ; preds = %entry, %for.inc
  %size345 = phi ptr [ %size3, %for.inc ], [ %size336, %entry ]
  %count.043 = phi i32 [ %inc, %for.inc ], [ 1, %entry ]
  %off_last.042 = phi i32 [ %5, %for.inc ], [ %1, %entry ]
  %off_high.041 = phi i32 [ %off_high.1, %for.inc ], [ %sub, %entry ]
  %off_low.040 = phi i32 [ %off_low.1, %for.inc ], [ %1, %entry ]
  %pio_start.039 = phi ptr [ %pio_start.1, %for.inc ], [ %0, %entry ]
  %.pn38 = phi ptr [ %pio.044, %for.inc ], [ %0, %entry ]
  %pio.044 = getelementptr i8, ptr %.pn38, i64 40
  %5 = load i32, ptr %pio.044, align 8
  %cmp5.not = icmp ult i32 %5, %off_last.042
  br i1 %cmp5.not, label %if.else, label %if.end

if.else:                                          ; preds = %for.body
  tail call void @__assert_fail(ptr noundef nonnull @.str, ptr noundef nonnull @.str.1, i32 noundef 294, ptr noundef nonnull @__PRETTY_FUNCTION__.portio_list_add) #12
  unreachable

if.end:                                           ; preds = %for.body
  %cmp7 = icmp ugt i32 %5, %off_high.041
  br i1 %cmp7, label %if.then8, label %if.else14

if.then8:                                         ; preds = %if.end
  tail call fastcc void @portio_list_add_1(ptr noundef nonnull %piolist, ptr noundef %pio_start.039, i32 noundef %count.043, i32 noundef %start, i32 noundef %off_low.040, i32 noundef %off_high.041)
  %len9 = getelementptr i8, ptr %.pn38, i64 44
  %6 = load i32, ptr %len9, align 4
  %7 = load i32, ptr %size345, align 8
  %add10 = add i32 %5, -1
  %add12 = add i32 %add10, %6
  %sub13 = add i32 %add12, %7
  br label %for.inc

if.else14:                                        ; preds = %if.end
  %len15 = getelementptr i8, ptr %.pn38, i64 44
  %8 = load i32, ptr %len15, align 4
  %add16 = add i32 %8, %5
  %cmp17 = icmp ugt i32 %add16, %off_high.041
  br i1 %cmp17, label %if.then18, label %for.inc

if.then18:                                        ; preds = %if.else14
  %size21 = getelementptr inbounds nuw i8, ptr %pio_start.039, i64 8
  %9 = load i32, ptr %size21, align 8
  %add22 = add i32 %add16, -1
  %sub23 = add i32 %add22, %9
  br label %for.inc

for.inc:                                          ; preds = %if.then8, %if.then18, %if.else14
  %pio_start.1 = phi ptr [ %pio.044, %if.then8 ], [ %pio_start.039, %if.then18 ], [ %pio_start.039, %if.else14 ]
  %off_low.1 = phi i32 [ %5, %if.then8 ], [ %off_low.040, %if.then18 ], [ %off_low.040, %if.else14 ]
  %off_high.1 = phi i32 [ %sub13, %if.then8 ], [ %sub23, %if.then18 ], [ %off_high.041, %if.else14 ]
  %count.1 = phi i32 [ 0, %if.then8 ], [ %count.043, %if.then18 ], [ %count.043, %if.else14 ]
  %inc = add i32 %count.1, 1
  %size3 = getelementptr i8, ptr %.pn38, i64 88
  %10 = load i32, ptr %size3, align 8
  %cmp.not = icmp eq i32 %10, 0
  br i1 %cmp.not, label %for.end, label %for.body, !llvm.loop !11

for.end:                                          ; preds = %for.inc, %entry
  %pio_start.0.lcssa = phi ptr [ %0, %entry ], [ %pio_start.1, %for.inc ]
  %off_low.0.lcssa = phi i32 [ %1, %entry ], [ %off_low.1, %for.inc ]
  %off_high.0.lcssa = phi i32 [ %sub, %entry ], [ %off_high.1, %for.inc ]
  %count.0.lcssa = phi i32 [ 1, %entry ], [ %inc, %for.inc ]
  tail call fastcc void @portio_list_add_1(ptr noundef nonnull %piolist, ptr noundef %pio_start.0.lcssa, i32 noundef %count.0.lcssa, i32 noundef %start, i32 noundef %off_low.0.lcssa, i32 noundef %off_high.0.lcssa)
  ret void
}